target datalayout = "e-m:e-p270:32:32-p271:32:32-p272:64:64-i64:64-i128:128-f80:128-n8:16:32:64-S128"
target triple = "x86_64-pc-linux-gnu"

%class.params_ref = type { ptr }
%class.symbol = type { ptr }
%struct.sat_params = type { ptr, %class.params_ref }

@.str = private unnamed_addr constant [6 x i8] c"phase\00", align 1
@.str.6 = private unnamed_addr constant [16 x i8] c"restart.initial\00", align 1
@.str.7 = private unnamed_addr constant [14 x i8] c"max_conflicts\00", align 1
@.str.8 = private unnamed_addr constant [15 x i8] c"simplify.delay\00", align 1
@.str.9 = private unnamed_addr constant [9 x i8] c"gc.burst\00", align 1
@.str.20 = private unnamed_addr constant [4 x i8] c"sat\00", align 1
@.str.21 = private unnamed_addr constant [8 x i8] c"caching\00", align 1

; Function Attrs: inlinehint mustprogress nounwind uwtable
define linkonce_odr hidden void @_ZN10sat_paramsD2Ev(ptr noundef nonnull align 8 dereferenceable(16) %0) unnamed_addr #7 comdat align 2 {
  %2 = alloca ptr, align 8
  store ptr %0, ptr %2, align 8, !tbaa !97
  %3 = load ptr, ptr %2, align 8
  %4 = getelementptr inbounds nuw %struct.sat_params, ptr %3, i32 0, i32 1
  call void @_ZN10params_refD1Ev(ptr noundef nonnull align 8 dereferenceable(8) %4) #3
  ret void
}

; Function Attrs: mustprogress uwtable
define linkonce_odr hidden noundef zeroext i1 @_ZNK10sat_params8gc_burstEv(ptr noundef nonnull align 8 dereferenceable(16) %0) #6 comdat align 2 {
  %2 = alloca ptr, align 8
  store ptr %0, ptr %2, align 8, !tbaa !97
  %3 = load ptr, ptr %2, align 8
  %4 = getelementptr inbounds nuw %struct.sat_params, ptr %3, i32 0, i32 0
  %5 = load ptr, ptr %4, align 8, !tbaa !99
  %6 = getelementptr inbounds nuw %struct.sat_params, ptr %3, i32 0, i32 1
  %7 = call noundef zeroext i1 @_ZNK10params_ref8get_boolEPKcRKS_b(ptr noundef nonnull align 8 dereferenceable(8) %5, ptr noundef @.str.9, ptr noundef nonnull align 8 dereferenceable(8) %6, i1 noundef zeroext false)
  ret i1 %7
}

; Function Attrs: mustprogress uwtable
define linkonce_odr hidden noundef i32 @_ZNK10sat_params14simplify_delayEv(ptr noundef nonnull align 8 dereferenceable(16) %0) #6 comdat align 2 {
  %2 = alloca ptr, align 8
  store ptr %0, ptr %2, align 8, !tbaa !97
  %3 = load ptr, ptr %2, align 8
  %4 = getelementptr inbounds nuw %struct.sat_params, ptr %3, i32 0, i32 0
  %5 = load ptr, ptr %4, align 8, !tbaa !99
  %6 = getelementptr inbounds nuw %struct.sat_params, ptr %3, i32 0, i32 1
  %7 = call noundef i32 @_ZNK10params_ref8get_uintEPKcRKS_j(ptr noundef nonnull align 8 dereferenceable(8) %5, ptr noundef @.str.8, ptr noundef nonnull align 8 dereferenceable(8) %6, i32 noundef 0)
  ret i32 %7
}

; Function Attrs: mustprogress uwtable
define linkonce_odr hidden noundef i32 @_ZNK10sat_params13max_conflictsEv(ptr noundef nonnull align 8 dereferenceable(16) %0) #6 comdat align 2 {
  %2 = alloca ptr, align 8
  store ptr %0, ptr %2, align 8, !tbaa !97
  %3 = load ptr, ptr %2, align 8
  %4 = getelementptr inbounds nuw %struct.sat_params, ptr %3, i32 0, i32 0
  %5 = load ptr, ptr %4, align 8, !tbaa !99
  %6 = getelementptr inbounds nuw %struct.sat_params, ptr %3, i32 0, i32 1
  %7 = call noundef i32 @_ZNK10params_ref8get_uintEPKcRKS_j(ptr noundef nonnull align 8 dereferenceable(8) %5, ptr noundef @.str.7, ptr noundef nonnull align 8 dereferenceable(8) %6, i32 noundef -1)
  ret i32 %7
}

; Function Attrs: mustprogress uwtable
define linkonce_odr hidden noundef i32 @_ZNK10sat_params15restart_initialEv(ptr noundef nonnull align 8 dereferenceable(16) %0) #6 comdat align 2 {
  %2 = alloca ptr, align 8
  store ptr %0, ptr %2, align 8, !tbaa !97
  %3 = load ptr, ptr %2, align 8
  %4 = getelementptr inbounds nuw %struct.sat_params, ptr %3, i32 0, i32 0
  %5 = load ptr, ptr %4, align 8, !tbaa !99
  %6 = getelementptr inbounds nuw %struct.sat_params, ptr %3, i32 0, i32 1
  %7 = call noundef i32 @_ZNK10params_ref8get_uintEPKcRKS_j(ptr noundef nonnull align 8 dereferenceable(8) %5, ptr noundef @.str.6, ptr noundef nonnull align 8 dereferenceable(8) %6, i32 noundef 2)
  ret i32 %7
}

; Function Attrs: mustprogress uwtable
define linkonce_odr hidden ptr @_ZNK10sat_params5phaseEv(ptr noundef nonnull align 8 dereferenceable(16) %0) #6 comdat align 2 {
  %2 = alloca %class.symbol, align 8
  %3 = alloca ptr, align 8
  %4 = alloca %class.symbol, align 8
  store ptr %0, ptr %3, align 8, !tbaa !97
  %5 = load ptr, ptr %3, align 8
  %6 = getelementptr inbounds nuw %struct.sat_params, ptr %5, i32 0, i32 0
  %7 = load ptr, ptr %6, align 8, !tbaa !99
  %8 = getelementptr inbounds nuw %struct.sat_params, ptr %5, i32 0, i32 1
  call void @llvm.lifetime.start.p0(i64 8, ptr %4) #3
  call void @_ZN6symbolC1EPKc(ptr noundef nonnull align 8 dereferenceable(8) %4, ptr noundef @.str.21)
  %9 = call ptr @_ZNK10params_ref7get_symEPKcRKS_RK6symbol(ptr noundef nonnull align 8 dereferenceable(8) %7, ptr noundef @.str, ptr noundef nonnull align 8 dereferenceable(8) %8, ptr noundef nonnull align 8 dereferenceable(8) %4)
  %10 = getelementptr inbounds nuw %class.symbol, ptr %2, i32 0, i32 0
  store ptr %9, ptr %10, align 8
  call void @llvm.lifetime.end.p0(i64 8, ptr %4) #3
  %11 = getelementptr inbounds nuw %class.symbol, ptr %2, i32 0, i32 0
  %12 = load ptr, ptr %11, align 8
  ret ptr %12
}

; Function Attrs: mustprogress uwtable
define linkonce_odr hidden void @_ZN10sat_paramsC2ERK10params_ref(ptr noundef nonnull align 8 dereferenceable(16) %0, ptr noundef nonnull align 8 dereferenceable(8) %1) unnamed_addr #6 comdat align 2 {
  %3 = alloca ptr, align 8
  %4 = alloca ptr, align 8
  store ptr %0, ptr %3, align 8, !tbaa !97
  store ptr %1, ptr %4, align 8, !tbaa !92
  %5 = load ptr, ptr %3, align 8
  %6 = getelementptr inbounds nuw %struct.sat_params, ptr %5, i32 0, i32 0
  %7 = load ptr, ptr %4, align 8, !tbaa !92
  store ptr %7, ptr %6, align 8, !tbaa !92
  %8 = getelementptr inbounds nuw %struct.sat_params, ptr %5, i32 0, i32 1
  call void @_ZN7gparams10get_moduleEPKc(ptr dead_on_unwind writable sret(%class.params_ref) align 8 %8, ptr noundef @.str.20)
  ret void
}

; Function Attrs: mustprogress uwtable
define hidden void @_ZN3opt3lns13save_defaultsER10params_ref(ptr noundef nonnull align 8 dereferenceable(184) %0, ptr noundef nonnull align 8 dereferenceable(8) %1) #6 align 2 personality ptr @__gxx_personality_v0 {
  %3 = alloca ptr, align 8
  %4 = alloca ptr, align 8
  %5 = alloca %struct.sat_params, align 8
  %6 = alloca %class.symbol, align 8
  %7 = alloca ptr, align 8
  %8 = alloca i32, align 4
  store ptr %0, ptr %3, align 8, !tbaa !28
  store ptr %1, ptr %4, align 8, !tbaa !92
  call void @llvm.lifetime.start.p0(i64 16, ptr %5) #3
  %9 = load ptr, ptr %4, align 8, !tbaa !92
  call void @_ZN10sat_paramsC2ERK10params_ref(ptr noundef nonnull align 8 dereferenceable(16) %5, ptr noundef nonnull align 8 dereferenceable(8) %9)
  %10 = load ptr, ptr %4, align 8, !tbaa !92
  call void @llvm.lifetime.start.p0(i64 8, ptr %6) #3
  %11 = invoke ptr @_ZNK10sat_params5phaseEv(ptr noundef nonnull align 8 dereferenceable(16) %5)
          to label %12 unwind label %32

12:                                               ; preds = %2
  %13 = getelementptr inbounds nuw %class.symbol, ptr %6, i32 0, i32 0
  store ptr %11, ptr %13, align 8
  invoke void @_ZN10params_ref7set_symEPKcRK6symbol(ptr noundef nonnull align 8 dereferenceable(8) %10, ptr noundef @.str, ptr noundef nonnull align 8 dereferenceable(8) %6)
          to label %14 unwind label %32

14:                                               ; preds = %12
  call void @llvm.lifetime.end.p0(i64 8, ptr %6) #3
  %15 = load ptr, ptr %4, align 8, !tbaa !92
  %16 = invoke noundef i32 @_ZNK10sat_params15restart_initialEv(ptr noundef nonnull align 8 dereferenceable(16) %5)
          to label %17 unwind label %36

17:                                               ; preds = %14
  invoke void @_ZN10params_ref8set_uintEPKcj(ptr noundef nonnull align 8 dereferenceable(8) %15, ptr noundef @.str.6, i32 noundef %16)
          to label %18 unwind label %36

18:                                               ; preds = %17
  %19 = load ptr, ptr %4, align 8, !tbaa !92
  %20 = invoke noundef i32 @_ZNK10sat_params13max_conflictsEv(ptr noundef nonnull align 8 dereferenceable(16) %5)
          to label %21 unwind label %36

21:                                               ; preds = %18
  invoke void @_ZN10params_ref8set_uintEPKcj(ptr noundef nonnull align 8 dereferenceable(8) %19, ptr noundef @.str.7, i32 noundef %20)
          to label %22 unwind label %36

22:                                               ; preds = %21
  %23 = load ptr, ptr %4, align 8, !tbaa !92
  %24 = invoke noundef i32 @_ZNK10sat_params14simplify_delayEv(ptr noundef nonnull align 8 dereferenceable(16) %5)
          to label %25 unwind label %36

25:                                               ; preds = %22
  invoke void @_ZN10params_ref8set_uintEPKcj(ptr noundef nonnull align 8 dereferenceable(8) %23, ptr noundef @.str.8, i32 noundef %24)
          to label %26 unwind label %36

26:                                               ; preds = %25
  %27 = load ptr, ptr %4, align 8, !tbaa !92
  %28 = invoke noundef zeroext i1 @_ZNK10sat_params8gc_burstEv(ptr noundef nonnull align 8 dereferenceable(16) %5)
          to label %29 unwind label %36

29:                                               ; preds = %26
  %30 = zext i1 %28 to i32
  invoke void @_ZN10params_ref8set_uintEPKcj(ptr noundef nonnull align 8 dereferenceable(8) %27, ptr noundef @.str.9, i32 noundef %30)
          to label %31 unwind label %36

31:                                               ; preds = %29
  call void @_ZN10sat_paramsD2Ev(ptr noundef nonnull align 8 dereferenceable(16) %5) #3
  call void @llvm.lifetime.end.p0(i64 16, ptr %5) #3
  ret void

32:                                               ; preds = %12, %2
  %33 = landingpad { ptr, i32 }
          cleanup
  %34 = extractvalue { ptr, i32 } %33, 0
  store ptr %34, ptr %7, align 8
  %35 = extractvalue { ptr, i32 } %33, 1
  store i32 %35, ptr %8, align 4
  call void @llvm.lifetime.end.p0(i64 8, ptr %6) #3
  br label %40

36:                                               ; preds = %29, %26, %25, %22, %21, %18, %17, %14
  %37 = landingpad { ptr, i32 }
          cleanup
  %38 = extractvalue { ptr, i32 } %37, 0
  store ptr %38, ptr %7, align 8
  %39 = extractvalue { ptr, i32 } %37, 1
  store i32 %39, ptr %8, align 4
  br label %40

40:                                               ; preds = %36, %32
  call void @_ZN10sat_paramsD2Ev(ptr noundef nonnull align 8 dereferenceable(16) %5) #3
  call void @llvm.lifetime.end.p0(i64 16, ptr %5) #3
  br label %41

41:                                               ; preds = %40
  %42 = load ptr, ptr %7, align 8
  %43 = load i32, ptr %8, align 4
  %44 = insertvalue { ptr, i32 } poison, ptr %42, 0
  %45 = insertvalue { ptr, i32 } %44, i32 %43, 1
  resume { ptr, i32 } %45
}