; Function Attrs: mustprogress uwtable
define hidden void @_ZN3opt3lns13save_defaultsER10params_ref(ptr nonnull readnone align 8 captures(none) %0, ptr noundef nonnull align 8 dereferenceable(8) %1) local_unnamed_addr #4 align 2 personality ptr @__gxx_personality_v0 {
  %3 = alloca %class.symbol, align 8
  %4 = alloca %struct.sat_params, align 8
  %5 = alloca %class.symbol, align 8
  call void @llvm.lifetime.start.p0(i64 16, ptr nonnull %4) #20
  store ptr %1, ptr %4, align 8, !tbaa !75
  %6 = getelementptr inbounds nuw i8, ptr %4, i64 8
  call void @_ZN7gparams10get_moduleEPKc(ptr dead_on_unwind nonnull writable sret(%class.params_ref) align 8 %6, ptr noundef nonnull @.str.20)
  call void @llvm.lifetime.start.p0(i64 8, ptr nonnull %5) #20
  %7 = load ptr, ptr %4, align 8, !tbaa !77
  call void @llvm.lifetime.start.p0(i64 8, ptr nonnull %3) #20
  invoke void @_ZN6symbolC1EPKc(ptr noundef nonnull align 8 dereferenceable(8) %3, ptr noundef nonnull @.str.21)
          to label %.noexc unwind label %24

.noexc:                                           ; preds = %2
  %8 = invoke ptr @_ZNK10params_ref7get_symEPKcRKS_RK6symbol(ptr noundef nonnull align 8 dereferenceable(8) %7, ptr noundef nonnull @.str, ptr noundef nonnull align 8 dereferenceable(8) %6, ptr noundef nonnull align 8 dereferenceable(8) %3)
          to label %9 unwind label %24

9:                                                ; preds = %.noexc
  call void @llvm.lifetime.end.p0(i64 8, ptr nonnull %3) #20
  store ptr %8, ptr %5, align 8
  invoke void @_ZN10params_ref7set_symEPKcRK6symbol(ptr noundef nonnull align 8 dereferenceable(8) %1, ptr noundef nonnull @.str, ptr noundef nonnull align 8 dereferenceable(8) %5)
          to label %10 unwind label %24

10:                                               ; preds = %9
  call void @llvm.lifetime.end.p0(i64 8, ptr nonnull %5) #20
  %11 = load ptr, ptr %4, align 8, !tbaa !77
  %12 = invoke noundef i32 @_ZNK10params_ref8get_uintEPKcRKS_j(ptr noundef nonnull align 8 dereferenceable(8) %11, ptr noundef nonnull @.str.6, ptr noundef nonnull align 8 dereferenceable(8) %6, i32 noundef 2)
          to label %_ZNK10sat_params15restart_initialEv.exit unwind label %26

_ZNK10sat_params15restart_initialEv.exit:         ; preds = %10
  invoke void @_ZN10params_ref8set_uintEPKcj(ptr noundef nonnull align 8 dereferenceable(8) %1, ptr noundef nonnull @.str.6, i32 noundef %12)
          to label %13 unwind label %26

13:                                               ; preds = %_ZNK10sat_params15restart_initialEv.exit
  %14 = load ptr, ptr %4, align 8, !tbaa !77
  %15 = invoke noundef i32 @_ZNK10params_ref8get_uintEPKcRKS_j(ptr noundef nonnull align 8 dereferenceable(8) %14, ptr noundef nonnull @.str.7, ptr noundef nonnull align 8 dereferenceable(8) %6, i32 noundef -1)
          to label %_ZNK10sat_params13max_conflictsEv.exit unwind label %26

_ZNK10sat_params13max_conflictsEv.exit:           ; preds = %13
  invoke void @_ZN10params_ref8set_uintEPKcj(ptr noundef nonnull align 8 dereferenceable(8) %1, ptr noundef nonnull @.str.7, i32 noundef %15)
          to label %16 unwind label %26

16:                                               ; preds = %_ZNK10sat_params13max_conflictsEv.exit
  %17 = load ptr, ptr %4, align 8, !tbaa !77
  %18 = invoke noundef i32 @_ZNK10params_ref8get_uintEPKcRKS_j(ptr noundef nonnull align 8 dereferenceable(8) %17, ptr noundef nonnull @.str.8, ptr noundef nonnull align 8 dereferenceable(8) %6, i32 noundef 0)
          to label %_ZNK10sat_params14simplify_delayEv.exit unwind label %26

_ZNK10sat_params14simplify_delayEv.exit:          ; preds = %16
  invoke void @_ZN10params_ref8set_uintEPKcj(ptr noundef nonnull align 8 dereferenceable(8) %1, ptr noundef nonnull @.str.8, i32 noundef %18)
          to label %19 unwind label %26

19:                                               ; preds = %_ZNK10sat_params14simplify_delayEv.exit
  %20 = load ptr, ptr %4, align 8, !tbaa !77
  %21 = invoke noundef zeroext i1 @_ZNK10params_ref8get_boolEPKcRKS_b(ptr noundef nonnull align 8 dereferenceable(8) %20, ptr noundef nonnull @.str.9, ptr noundef nonnull align 8 dereferenceable(8) %6, i1 noundef zeroext false)
          to label %_ZNK10sat_params8gc_burstEv.exit unwind label %26

_ZNK10sat_params8gc_burstEv.exit:                 ; preds = %19
  %22 = zext i1 %21 to i32
  invoke void @_ZN10params_ref8set_uintEPKcj(ptr noundef nonnull align 8 dereferenceable(8) %1, ptr noundef nonnull @.str.9, i32 noundef %22)
          to label %23 unwind label %26

23:                                               ; preds = %_ZNK10sat_params8gc_burstEv.exit
  call void @_ZN10params_refD1Ev(ptr noundef nonnull align 8 dereferenceable(8) %6) #20
  call void @llvm.lifetime.end.p0(i64 16, ptr nonnull %4) #20
  ret void

24:                                               ; preds = %.noexc, %2, %9
  %25 = landingpad { ptr, i32 }
          cleanup
  call void @llvm.lifetime.end.p0(i64 8, ptr nonnull %5) #20
  br label %28

26:                                               ; preds = %19, %16, %13, %10, %_ZNK10sat_params8gc_burstEv.exit, %_ZNK10sat_params14simplify_delayEv.exit, %_ZNK10sat_params13max_conflictsEv.exit, %_ZNK10sat_params15restart_initialEv.exit
  %27 = landingpad { ptr, i32 }
          cleanup
  br label %28

28:                                               ; preds = %26, %24
  %.pn = phi { ptr, i32 } [ %27, %26 ], [ %25, %24 ]
  call void @_ZN10params_refD1Ev(ptr noundef nonnull align 8 dereferenceable(8) %6) #20
  call void @llvm.lifetime.end.p0(i64 16, ptr nonnull %4) #20
  resume { ptr, i32 } %.pn
}